; Function Attrs: mustprogress uwtable
define void @_ZN3nix14SourceAccessor5lstatERKNS_9CanonPathE(ptr dead_on_unwind noalias nocapture writable writeonly sret(%"struct.nix::SourceAccessor::Stat") align 8 %0, ptr noundef nonnull align 8 dereferenceable(80) %1, ptr noundef nonnull align 8 dereferenceable(32) %2) local_unnamed_addr #4 align 2 personality ptr @__gxx_personality_v0 {
  %4 = alloca %"class.std::optional", align 8
  %5 = alloca %"class.std::__cxx11::basic_string", align 8
  %6 = alloca %"class.std::allocator", align 1
  %7 = alloca %"class.std::__cxx11::basic_string", align 8
  %8 = load ptr, ptr %1, align 8
  %9 = getelementptr inbounds i8, ptr %8, i64 40
  %10 = load ptr, ptr %9, align 8
  call void %10(ptr dead_on_unwind nonnull writable sret(%"class.std::optional") align 8 %4, ptr noundef nonnull align 8 dereferenceable(80) %1, ptr noundef nonnull align 8 dereferenceable(32) %2)
  %11 = getelementptr inbounds i8, ptr %4, i64 48
  %12 = load i8, ptr %11, align 8
  %13 = and i8 %12, 1
  %.not = icmp eq i8 %13, 0
  br i1 %.not, label %15, label %14

14:                                               ; preds = %3
  call void @llvm.memcpy.p0.p0.i64(ptr noundef nonnull align 8 dereferenceable(48) %0, ptr noundef nonnull align 8 dereferenceable(48) %4, i64 48, i1 false)
  ret void

15:                                               ; preds = %3
  %16 = call ptr @__cxa_allocate_exception(i64 376) #23
  call void @_ZNSaIcEC1Ev(ptr noundef nonnull align 1 dereferenceable(1) %6) #23
  invoke void @_ZNSt7__cxx1112basic_stringIcSt11char_traitsIcESaIcEEC2IS3_EEPKcRKS3_(ptr noundef nonnull align 8 dereferenceable(32) %5, ptr noundef nonnull @.str.4, ptr noundef nonnull align 1 dereferenceable(1) %6)
          to label %17 unwind label %.thread

17:                                               ; preds = %15
  %18 = load ptr, ptr %1, align 8
  %19 = getelementptr inbounds i8, ptr %18, i64 80
  %20 = load ptr, ptr %19, align 8
  invoke void %20(ptr dead_on_unwind nonnull writable sret(%"class.std::__cxx11::basic_string") align 8 %7, ptr noundef nonnull align 8 dereferenceable(80) %1, ptr noundef nonnull align 8 dereferenceable(32) %2)
          to label %21 unwind label %24

21:                                               ; preds = %17
  invoke void @_ZN3nix5ErrorCI2NS_9BaseErrorEIJNSt7__cxx1112basic_stringIcSt11char_traitsIcESaIcEEEEEERKS6_DpRKT_(ptr noundef nonnull align 8 dereferenceable(376) %16, ptr noundef nonnull align 8 dereferenceable(32) %5, ptr noundef nonnull align 8 dereferenceable(32) %7)
          to label %22 unwind label %26

22:                                               ; preds = %21
  invoke void @__cxa_throw(ptr nonnull %16, ptr nonnull @_ZTIN3nix5ErrorE, ptr nonnull @_ZN3nix5ErrorD2Ev) #24
          to label %31 unwind label %26

.thread:                                          ; preds = %15
  %23 = landingpad { ptr, i32 }
          cleanup
  call void @_ZNSaIcED1Ev(ptr noundef nonnull align 1 dereferenceable(1) %6) #23
  br label %29

24:                                               ; preds = %17
  %25 = landingpad { ptr, i32 }
          cleanup
  br label %28

26:                                               ; preds = %22, %21
  %.0 = phi i1 [ false, %22 ], [ true, %21 ]
  %27 = landingpad { ptr, i32 }
          cleanup
  call void @_ZNSt7__cxx1112basic_stringIcSt11char_traitsIcESaIcEED2Ev(ptr noundef nonnull align 8 dereferenceable(32) %7) #23
  br label %28

28:                                               ; preds = %24, %26
  %.pn = phi { ptr, i32 } [ %27, %26 ], [ %25, %24 ]
  %.1 = phi i1 [ %.0, %26 ], [ true, %24 ]
  call void @_ZNSt7__cxx1112basic_stringIcSt11char_traitsIcESaIcEED2Ev(ptr noundef nonnull align 8 dereferenceable(32) %5) #23
  call void @_ZNSaIcED1Ev(ptr noundef nonnull align 1 dereferenceable(1) %6) #23
  br i1 %.1, label %29, label %30

29:                                               ; preds = %.thread, %28
  %.pn.pn14 = phi { ptr, i32 } [ %23, %.thread ], [ %.pn, %28 ]
  call void @__cxa_free_exception(ptr %16) #23
  br label %30

30:                                               ; preds = %28, %29
  %.pn.pn13 = phi { ptr, i32 } [ %.pn, %28 ], [ %.pn.pn14, %29 ]
  resume { ptr, i32 } %.pn.pn13

31:                                               ; preds = %22
  unreachable
}